target datalayout = "e-m:e-p270:32:32-p271:32:32-p272:64:64-i64:64-i128:128-f80:128-n8:16:32:64-S128"
target triple = "x86_64-pc-linux-gnu"

; Function Attrs: mustprogress nounwind uwtable
define noundef zeroext i1 @_ZN7Imf_3_410isImfMagicEPKc(ptr noundef %0) #0 {
  %2 = alloca ptr, align 8
  store ptr %0, ptr %2, align 8, !tbaa !3
  %3 = load ptr, ptr %2, align 8, !tbaa !3
  %4 = getelementptr inbounds i8, ptr %3, i64 0
  %5 = load i8, ptr %4, align 1, !tbaa !8
  %6 = sext i8 %5 to i32
  %7 = icmp eq i32 %6, 118
  br i1 %7, label %8, label %26

8:                                                ; preds = %1
  %9 = load ptr, ptr %2, align 8, !tbaa !3
  %10 = getelementptr inbounds i8, ptr %9, i64 1
  %11 = load i8, ptr %10, align 1, !tbaa !8
  %12 = sext i8 %11 to i32
  %13 = icmp eq i32 %12, 47
  br i1 %13, label %14, label %26

14:                                               ; preds = %8
  %15 = load ptr, ptr %2, align 8, !tbaa !3
  %16 = getelementptr inbounds i8, ptr %15, i64 2
  %17 = load i8, ptr %16, align 1, !tbaa !8
  %18 = sext i8 %17 to i32
  %19 = icmp eq i32 %18, 49
  br i1 %19, label %20, label %26

20:                                               ; preds = %14
  %21 = load ptr, ptr %2, align 8, !tbaa !3
  %22 = getelementptr inbounds i8, ptr %21, i64 3
  %23 = load i8, ptr %22, align 1, !tbaa !8
  %24 = sext i8 %23 to i32
  %25 = icmp eq i32 %24, 1
  br label %26

26:                                               ; preds = %20, %14, %8, %1
  %27 = phi i1 [ false, %14 ], [ false, %8 ], [ false, %1 ], [ %25, %20 ]
  ret i1 %27
}


!llvm.module.flags = !{!0, !1, !2}

!0 = !{i32 1, !"wchar_size", i32 4}
!1 = !{i32 8, !"PIC Level", i32 2}
!2 = !{i32 7, !"uwtable", i32 2}
!3 = !{!4, !4, i64 0}
!4 = !{!"p1 omnipotent char", !5, i64 0}
!5 = !{!"any pointer", !6, i64 0}
!6 = !{!"omnipotent char", !7, i64 0}
!7 = !{!"Simple C++ TBAA"}
!8 = !{!6, !6, i64 0}
