; ModuleID = 'bench/openexr/original/ImfVersion.ll'
source_filename = "bench/openexr/original/ImfVersion.ll"
target datalayout = "e-m:e-p270:32:32-p271:32:32-p272:64:64-i64:64-i128:128-f80:128-n8:16:32:64-S128"
target triple = "x86_64-pc-linux-gnu"

; Function Attrs: mustprogress nofree norecurse nosync nounwind willreturn memory(argmem: read) uwtable
define noundef zeroext i1 @_ZN7Imf_3_410isImfMagicEPKc(ptr noundef readonly captures(none) %0) local_unnamed_addr #0 {
  %2 = load i8, ptr %0, align 1, !tbaa !3
  %3 = icmp eq i8 %2, 118
  br i1 %3, label %4, label %16

4:                                                ; preds = %1
  %5 = getelementptr inbounds nuw i8, ptr %0, i64 1
  %6 = load i8, ptr %5, align 1, !tbaa !3
  %7 = icmp eq i8 %6, 47
  br i1 %7, label %8, label %16

8:                                                ; preds = %4
  %9 = getelementptr inbounds nuw i8, ptr %0, i64 2
  %10 = load i8, ptr %9, align 1, !tbaa !3
  %11 = icmp eq i8 %10, 49
  br i1 %11, label %12, label %16

12:                                               ; preds = %8
  %13 = getelementptr inbounds nuw i8, ptr %0, i64 3
  %14 = load i8, ptr %13, align 1, !tbaa !3
  %15 = icmp eq i8 %14, 1
  br label %16

16:                                               ; preds = %12, %8, %4, %1
  %17 = phi i1 [ false, %8 ], [ false, %4 ], [ false, %1 ], [ %15, %12 ]
  ret i1 %17
}


!llvm.module.flags = !{!0, !1, !2}

!0 = !{i32 1, !"wchar_size", i32 4}
!1 = !{i32 8, !"PIC Level", i32 2}
!2 = !{i32 7, !"uwtable", i32 2}
!3 = !{!4, !4, i64 0}
!4 = !{!"omnipotent char", !5, i64 0}
!5 = !{!"Simple C++ TBAA"}
